; Function Attrs: inlinehint nounwind uwtable
define internal fastcc ptr @pmix_bfrops_base_tma_device_distance_create(i64 noundef %0, ptr noundef %1) unnamed_addr #4 {
  %3 = icmp eq i64 %0, 0
  br i1 %3, label %.loopexit, label %4

4:                                                ; preds = %2
  %5 = shl i64 %0, 5
  %.not.i = icmp eq ptr %1, null
  br i1 %.not.i, label %9, label %6

6:                                                ; preds = %4
  %7 = load ptr, ptr %1, align 8, !tbaa !39
  %8 = tail call ptr %7(ptr noundef nonnull %1, i64 noundef %5) #17
  br label %pmix_tma_malloc.exit

9:                                                ; preds = %4
  %10 = tail call noalias ptr @malloc(i64 noundef %5) #18
  br label %pmix_tma_malloc.exit

pmix_tma_malloc.exit:                             ; preds = %6, %9
  %.0.i = phi ptr [ %8, %6 ], [ %10, %9 ]
  %.not = icmp eq ptr %.0.i, null
  br i1 %.not, label %.loopexit, label %.preheader, !prof !29

.preheader:                                       ; preds = %pmix_tma_malloc.exit, %.preheader
  %.014 = phi i64 [ %14, %.preheader ], [ 0, %pmix_tma_malloc.exit ]
  %11 = getelementptr inbounds nuw %struct.pmix_device_distance, ptr %.0.i, i64 %.014
  %12 = getelementptr inbounds nuw i8, ptr %11, i64 24
  tail call void @llvm.memset.p0.i64(ptr noundef nonnull align 8 dereferenceable(32) %11, i8 0, i64 32, i1 false)
  store i16 -1, ptr %12, align 8, !tbaa !250
  %13 = getelementptr inbounds nuw i8, ptr %11, i64 26
  store i16 -1, ptr %13, align 2, !tbaa !251
  %14 = add nuw i64 %.014, 1
  %exitcond.not = icmp eq i64 %14, %0
  br i1 %exitcond.not, label %.loopexit, label %.preheader, !llvm.loop !311

.loopexit:                                        ; preds = %.preheader, %pmix_tma_malloc.exit, %2
  %.011 = phi ptr [ null, %2 ], [ null, %pmix_tma_malloc.exit ], [ %.0.i, %.preheader ]
  ret ptr %.011
}